; Function Attrs: mustprogress uwtable
define internal noundef zeroext i1 @"_ZNSt17_Function_handlerIFvmEZN2cv5gimpl24GParallelFluidExecutable3runEOSt6vectorISt4pairINS2_6RcDescENS1_7GRunArgEESaIS8_EEOS4_IS5_IS6_NS1_4util7variantIJPNS1_4UMatEPNS1_3MatEPNS1_4RMatEPNS1_7Scalar_IdEEPNS1_10MediaFrameENS1_6detail9VectorRefENSP_9OpaqueRefEEEEESaIST_EEE3$_0E10_M_managerERSt9_Any_dataRKSZ_St18_Manager_operation"(ptr noundef nonnull align 8 captures(none) dereferenceable(16) %0, ptr noundef nonnull readonly align 8 captures(none) dereferenceable(16) %1, i32 noundef %2) #3 align 2 {
  switch i32 %2, label %"_ZNSt14_Function_base13_Base_managerIZN2cv5gimpl24GParallelFluidExecutable3runEOSt6vectorISt4pairINS2_6RcDescENS1_7GRunArgEESaIS8_EEOS4_IS5_IS6_NS1_4util7variantIJPNS1_4UMatEPNS1_3MatEPNS1_4RMatEPNS1_7Scalar_IdEEPNS1_10MediaFrameENS1_6detail9VectorRefENSP_9OpaqueRefEEEEESaIST_EEE3$_0E10_M_managerERSt9_Any_dataRKSZ_St18_Manager_operation.exit" [
    i32 0, label %4
    i32 1, label %5
    i32 3, label %8
    i32 2, label %6
  ]

4:                                                ; preds = %3
  store ptr @"_ZTIZN2cv5gimpl24GParallelFluidExecutable3runEOSt6vectorISt4pairINS0_6RcDescENS_7GRunArgEESaIS6_EEOS2_IS3_IS4_NS_4util7variantIJPNS_4UMatEPNS_3MatEPNS_4RMatEPNS_7Scalar_IdEEPNS_10MediaFrameENS_6detail9VectorRefENSN_9OpaqueRefEEEEESaISR_EEE3$_0", ptr %0, align 8, !tbaa !1739
  br label %"_ZNSt14_Function_base13_Base_managerIZN2cv5gimpl24GParallelFluidExecutable3runEOSt6vectorISt4pairINS2_6RcDescENS1_7GRunArgEESaIS8_EEOS4_IS5_IS6_NS1_4util7variantIJPNS1_4UMatEPNS1_3MatEPNS1_4RMatEPNS1_7Scalar_IdEEPNS1_10MediaFrameENS1_6detail9VectorRefENSP_9OpaqueRefEEEEESaIST_EEE3$_0E10_M_managerERSt9_Any_dataRKSZ_St18_Manager_operation.exit"

5:                                                ; preds = %3
  %.val = load ptr, ptr %1, align 8, !tbaa !39
  store ptr %.val, ptr %0, align 8, !tbaa !39
  br label %"_ZNSt14_Function_base13_Base_managerIZN2cv5gimpl24GParallelFluidExecutable3runEOSt6vectorISt4pairINS2_6RcDescENS1_7GRunArgEESaIS8_EEOS4_IS5_IS6_NS1_4util7variantIJPNS1_4UMatEPNS1_3MatEPNS1_4RMatEPNS1_7Scalar_IdEEPNS1_10MediaFrameENS1_6detail9VectorRefENSP_9OpaqueRefEEEEESaIST_EEE3$_0E10_M_managerERSt9_Any_dataRKSZ_St18_Manager_operation.exit"

6:                                                ; preds = %3
  %.val6 = load ptr, ptr %1, align 8
  %7 = tail call noalias noundef nonnull dereferenceable(24) ptr @_Znwm(i64 noundef 24) #33
  tail call void @llvm.memcpy.p0.p0.i64(ptr noundef nonnull align 16 dereferenceable(24) %7, ptr noundef nonnull readonly align 8 dereferenceable(24) %.val6, i64 24, i1 false), !tbaa.struct !1741
  store ptr %7, ptr %0, align 8, !tbaa !39
  br label %"_ZNSt14_Function_base13_Base_managerIZN2cv5gimpl24GParallelFluidExecutable3runEOSt6vectorISt4pairINS2_6RcDescENS1_7GRunArgEESaIS8_EEOS4_IS5_IS6_NS1_4util7variantIJPNS1_4UMatEPNS1_3MatEPNS1_4RMatEPNS1_7Scalar_IdEEPNS1_10MediaFrameENS1_6detail9VectorRefENSP_9OpaqueRefEEEEESaIST_EEE3$_0E10_M_managerERSt9_Any_dataRKSZ_St18_Manager_operation.exit"

8:                                                ; preds = %3
  %.val7.i = load ptr, ptr %0, align 8, !tbaa !39
  %9 = icmp eq ptr %.val7.i, null
  br i1 %9, label %"_ZNSt14_Function_base13_Base_managerIZN2cv5gimpl24GParallelFluidExecutable3runEOSt6vectorISt4pairINS2_6RcDescENS1_7GRunArgEESaIS8_EEOS4_IS5_IS6_NS1_4util7variantIJPNS1_4UMatEPNS1_3MatEPNS1_4RMatEPNS1_7Scalar_IdEEPNS1_10MediaFrameENS1_6detail9VectorRefENSP_9OpaqueRefEEEEESaIST_EEE3$_0E10_M_managerERSt9_Any_dataRKSZ_St18_Manager_operation.exit", label %10

10:                                               ; preds = %8
  tail call void @_ZdlPv(ptr noundef nonnull %.val7.i) #34
  br label %"_ZNSt14_Function_base13_Base_managerIZN2cv5gimpl24GParallelFluidExecutable3runEOSt6vectorISt4pairINS2_6RcDescENS1_7GRunArgEESaIS8_EEOS4_IS5_IS6_NS1_4util7variantIJPNS1_4UMatEPNS1_3MatEPNS1_4RMatEPNS1_7Scalar_IdEEPNS1_10MediaFrameENS1_6detail9VectorRefENSP_9OpaqueRefEEEEESaIST_EEE3$_0E10_M_managerERSt9_Any_dataRKSZ_St18_Manager_operation.exit"

"_ZNSt14_Function_base13_Base_managerIZN2cv5gimpl24GParallelFluidExecutable3runEOSt6vectorISt4pairINS2_6RcDescENS1_7GRunArgEESaIS8_EEOS4_IS5_IS6_NS1_4util7variantIJPNS1_4UMatEPNS1_3MatEPNS1_4RMatEPNS1_7Scalar_IdEEPNS1_10MediaFrameENS1_6detail9VectorRefENSP_9OpaqueRefEEEEESaIST_EEE3$_0E10_M_managerERSt9_Any_dataRKSZ_St18_Manager_operation.exit": ; preds = %3, %10, %8, %6, %5, %4
  ret i1 false
}